target datalayout = "e-m:e-p270:32:32-p271:32:32-p272:64:64-i64:64-i128:128-f80:128-n8:16:32:64-S128"
target triple = "x86_64-pc-linux-gnu"

%"class.icu_77::RBBITableBuilder" = type <{ ptr, ptr, ptr, ptr, ptr, ptr, i32, [4 x i8] }>
%"class.icu_77::UVector" = type { %"class.icu_77::UObject", i32, i32, ptr, ptr, ptr }
%"class.icu_77::UObject" = type { ptr }
%"class.icu_77::RBBIRuleBuilder" = type { ptr, ptr, ptr, ptr, ptr, %"class.icu_77::UnicodeString", ptr, ptr, ptr, ptr, ptr, ptr, i8, i8, ptr, ptr, ptr, ptr }
%"class.icu_77::UnicodeString" = type { %"class.icu_77::Replaceable", %"union.icu_77::UnicodeString::StackBufferOrFields" }
%"class.icu_77::Replaceable" = type { %"class.icu_77::UObject" }
%"union.icu_77::UnicodeString::StackBufferOrFields" = type { %struct.anon.0, [32 x i8] }
%struct.anon.0 = type { i16, i32, i32, ptr }
%"class.icu_77::RBBIStateDescriptor" = type { i8, i32, i32, ptr, i32, ptr, ptr }
%"class.icu_77::UVector32" = type { %"class.icu_77::UObject", i32, i32, i32, ptr }
%"struct.std::pair" = type { i32, i32 }

@_ZN6icu_7719RBBIStateDescriptorD1Ev = unnamed_addr alias void (ptr), ptr @_ZN6icu_7719RBBIStateDescriptorD2Ev

; Function Attrs: inlinehint mustprogress nounwind uwtable
define linkonce_odr noundef i32 @_ZNK6icu_779UVector3210elementAtiEi(ptr noundef nonnull align 8 dereferenceable(32) %0, i32 noundef %1) #1 comdat align 2 {
  %3 = alloca ptr, align 8
  %4 = alloca i32, align 4
  store ptr %0, ptr %3, align 8, !tbaa !110
  store i32 %1, ptr %4, align 4, !tbaa !26
  %5 = load ptr, ptr %3, align 8
  %6 = load i32, ptr %4, align 4, !tbaa !26
  %7 = icmp sge i32 %6, 0
  br i1 %7, label %8, label %25

8:                                                ; preds = %2
  %9 = getelementptr inbounds nuw %"class.icu_77::UVector32", ptr %5, i32 0, i32 1
  %10 = load i32, ptr %9, align 8, !tbaa !111
  %11 = icmp sgt i32 %10, 0
  br i1 %11, label %12, label %25

12:                                               ; preds = %8
  %13 = getelementptr inbounds nuw %"class.icu_77::UVector32", ptr %5, i32 0, i32 1
  %14 = load i32, ptr %13, align 8, !tbaa !111
  %15 = load i32, ptr %4, align 4, !tbaa !26
  %16 = sub nsw i32 %14, %15
  %17 = icmp sgt i32 %16, 0
  br i1 %17, label %18, label %25

18:                                               ; preds = %12
  %19 = getelementptr inbounds nuw %"class.icu_77::UVector32", ptr %5, i32 0, i32 4
  %20 = load ptr, ptr %19, align 8, !tbaa !114
  %21 = load i32, ptr %4, align 4, !tbaa !26
  %22 = sext i32 %21 to i64
  %23 = getelementptr inbounds i32, ptr %20, i64 %22
  %24 = load i32, ptr %23, align 4, !tbaa !26
  br label %26

25:                                               ; preds = %12, %8, %2
  br label %26

26:                                               ; preds = %25, %18
  %27 = phi i32 [ %24, %18 ], [ 0, %25 ]
  ret i32 %27
}

; Function Attrs: inlinehint mustprogress nounwind uwtable
define linkonce_odr noundef i32 @_ZNK6icu_777UVector4sizeEv(ptr noundef nonnull align 8 dereferenceable(40) %0) #1 comdat align 2 {
  %2 = alloca ptr, align 8
  store ptr %0, ptr %2, align 8, !tbaa !31
  %3 = load ptr, ptr %2, align 8
  %4 = getelementptr inbounds nuw %"class.icu_77::UVector", ptr %3, i32 0, i32 1
  %5 = load i32, ptr %4, align 8, !tbaa !32
  ret i32 %5
}

; Function Attrs: mustprogress uwtable
define void @_ZN6icu_7716RBBITableBuilder11removeStateESt4pairIiiE(ptr noundef nonnull align 8 dereferenceable(52) %0, i64 %1) #0 align 2 {
  %3 = alloca %"struct.std::pair", align 4
  %4 = alloca ptr, align 8
  %5 = alloca i32, align 4
  %6 = alloca i32, align 4
  %7 = alloca ptr, align 8
  %8 = alloca i32, align 4
  %9 = alloca i32, align 4
  %10 = alloca i32, align 4
  %11 = alloca i32, align 4
  %12 = alloca ptr, align 8
  %13 = alloca i32, align 4
  %14 = alloca i32, align 4
  %15 = alloca i32, align 4
  store i64 %1, ptr %3, align 4
  store ptr %0, ptr %4, align 8, !tbaa !3
  %16 = load ptr, ptr %4, align 8
  call void @llvm.lifetime.start.p0(i64 4, ptr %5) #11
  %17 = getelementptr inbounds nuw %"struct.std::pair", ptr %3, i32 0, i32 0
  %18 = load i32, ptr %17, align 4, !tbaa !126
  store i32 %18, ptr %5, align 4, !tbaa !26
  call void @llvm.lifetime.start.p0(i64 4, ptr %6) #11
  %19 = getelementptr inbounds nuw %"struct.std::pair", ptr %3, i32 0, i32 1
  %20 = load i32, ptr %19, align 4, !tbaa !128
  store i32 %20, ptr %6, align 4, !tbaa !26
  call void @llvm.lifetime.start.p0(i64 8, ptr %7) #11
  %21 = getelementptr inbounds nuw %"class.icu_77::RBBITableBuilder", ptr %16, i32 0, i32 3
  %22 = load ptr, ptr %21, align 8, !tbaa !20
  %23 = load i32, ptr %6, align 4, !tbaa !26
  %24 = call noundef ptr @_ZNK6icu_777UVector9elementAtEi(ptr noundef nonnull align 8 dereferenceable(40) %22, i32 noundef %23)
  store ptr %24, ptr %7, align 8, !tbaa !70
  %25 = getelementptr inbounds nuw %"class.icu_77::RBBITableBuilder", ptr %16, i32 0, i32 3
  %26 = load ptr, ptr %25, align 8, !tbaa !20
  %27 = load i32, ptr %6, align 4, !tbaa !26
  call void @_ZN6icu_777UVector15removeElementAtEi(ptr noundef nonnull align 8 dereferenceable(40) %26, i32 noundef %27)
  %28 = load ptr, ptr %7, align 8, !tbaa !70
  %29 = icmp eq ptr %28, null
  br i1 %29, label %31, label %30

30:                                               ; preds = %2
  call void @_ZN6icu_7719RBBIStateDescriptorD1Ev(ptr noundef nonnull align 8 dereferenceable(48) %28) #11
  call void @_ZN6icu_777UMemorydlEPv(ptr noundef %28) #11
  br label %31

31:                                               ; preds = %30, %2
  call void @llvm.lifetime.start.p0(i64 4, ptr %8) #11
  %32 = getelementptr inbounds nuw %"class.icu_77::RBBITableBuilder", ptr %16, i32 0, i32 3
  %33 = load ptr, ptr %32, align 8, !tbaa !20
  %34 = call noundef i32 @_ZNK6icu_777UVector4sizeEv(ptr noundef nonnull align 8 dereferenceable(40) %33)
  store i32 %34, ptr %8, align 4, !tbaa !26
  call void @llvm.lifetime.start.p0(i64 4, ptr %9) #11
  %35 = getelementptr inbounds nuw %"class.icu_77::RBBITableBuilder", ptr %16, i32 0, i32 0
  %36 = load ptr, ptr %35, align 8, !tbaa !14
  %37 = getelementptr inbounds nuw %"class.icu_77::RBBIRuleBuilder", ptr %36, i32 0, i32 14
  %38 = load ptr, ptr %37, align 8, !tbaa !39
  %39 = call noundef i32 @_ZNK6icu_7714RBBISetBuilder20getNumCharCategoriesEv(ptr noundef nonnull align 8 dereferenceable(53) %38)
  store i32 %39, ptr %9, align 4, !tbaa !26
  call void @llvm.lifetime.start.p0(i64 4, ptr %10) #11
  store i32 0, ptr %10, align 4, !tbaa !26
  br label %40

40:                                               ; preds = %85, %31
  %41 = load i32, ptr %10, align 4, !tbaa !26
  %42 = load i32, ptr %8, align 4, !tbaa !26
  %43 = icmp slt i32 %41, %42
  br i1 %43, label %45, label %44

44:                                               ; preds = %40
  store i32 2, ptr %11, align 4
  call void @llvm.lifetime.end.p0(i64 4, ptr %10) #11
  br label %88

45:                                               ; preds = %40
  call void @llvm.lifetime.start.p0(i64 8, ptr %12) #11
  %46 = getelementptr inbounds nuw %"class.icu_77::RBBITableBuilder", ptr %16, i32 0, i32 3
  %47 = load ptr, ptr %46, align 8, !tbaa !20
  %48 = load i32, ptr %10, align 4, !tbaa !26
  %49 = call noundef ptr @_ZNK6icu_777UVector9elementAtEi(ptr noundef nonnull align 8 dereferenceable(40) %47, i32 noundef %48)
  store ptr %49, ptr %12, align 8, !tbaa !70
  call void @llvm.lifetime.start.p0(i64 4, ptr %13) #11
  store i32 0, ptr %13, align 4, !tbaa !26
  br label %50

50:                                               ; preds = %81, %45
  %51 = load i32, ptr %13, align 4, !tbaa !26
  %52 = load i32, ptr %9, align 4, !tbaa !26
  %53 = icmp slt i32 %51, %52
  br i1 %53, label %55, label %54

54:                                               ; preds = %50
  store i32 5, ptr %11, align 4
  call void @llvm.lifetime.end.p0(i64 4, ptr %13) #11
  br label %84

55:                                               ; preds = %50
  call void @llvm.lifetime.start.p0(i64 4, ptr %14) #11
  %56 = load ptr, ptr %12, align 8, !tbaa !70
  %57 = getelementptr inbounds nuw %"class.icu_77::RBBIStateDescriptor", ptr %56, i32 0, i32 6
  %58 = load ptr, ptr %57, align 8, !tbaa !79
  %59 = load i32, ptr %13, align 4, !tbaa !26
  %60 = call noundef i32 @_ZNK6icu_779UVector3210elementAtiEi(ptr noundef nonnull align 8 dereferenceable(32) %58, i32 noundef %59)
  store i32 %60, ptr %14, align 4, !tbaa !26
  call void @llvm.lifetime.start.p0(i64 4, ptr %15) #11
  %61 = load i32, ptr %14, align 4, !tbaa !26
  store i32 %61, ptr %15, align 4, !tbaa !26
  %62 = load i32, ptr %14, align 4, !tbaa !26
  %63 = load i32, ptr %6, align 4, !tbaa !26
  %64 = icmp eq i32 %62, %63
  br i1 %64, label %65, label %67

65:                                               ; preds = %55
  %66 = load i32, ptr %5, align 4, !tbaa !26
  store i32 %66, ptr %15, align 4, !tbaa !26
  br label %75

67:                                               ; preds = %55
  %68 = load i32, ptr %14, align 4, !tbaa !26
  %69 = load i32, ptr %6, align 4, !tbaa !26
  %70 = icmp sgt i32 %68, %69
  br i1 %70, label %71, label %74

71:                                               ; preds = %67
  %72 = load i32, ptr %14, align 4, !tbaa !26
  %73 = sub nsw i32 %72, 1
  store i32 %73, ptr %15, align 4, !tbaa !26
  br label %74

74:                                               ; preds = %71, %67
  br label %75

75:                                               ; preds = %74, %65
  %76 = load ptr, ptr %12, align 8, !tbaa !70
  %77 = getelementptr inbounds nuw %"class.icu_77::RBBIStateDescriptor", ptr %76, i32 0, i32 6
  %78 = load ptr, ptr %77, align 8, !tbaa !79
  %79 = load i32, ptr %15, align 4, !tbaa !26
  %80 = load i32, ptr %13, align 4, !tbaa !26
  call void @_ZN6icu_779UVector3212setElementAtEii(ptr noundef nonnull align 8 dereferenceable(32) %78, i32 noundef %79, i32 noundef %80)
  call void @llvm.lifetime.end.p0(i64 4, ptr %15) #11
  call void @llvm.lifetime.end.p0(i64 4, ptr %14) #11
  br label %81

81:                                               ; preds = %75
  %82 = load i32, ptr %13, align 4, !tbaa !26
  %83 = add nsw i32 %82, 1
  store i32 %83, ptr %13, align 4, !tbaa !26
  br label %50, !llvm.loop !142

84:                                               ; preds = %54
  call void @llvm.lifetime.end.p0(i64 8, ptr %12) #11
  br label %85

85:                                               ; preds = %84
  %86 = load i32, ptr %10, align 4, !tbaa !26
  %87 = add nsw i32 %86, 1
  store i32 %87, ptr %10, align 4, !tbaa !26
  br label %40, !llvm.loop !143

88:                                               ; preds = %44
  call void @llvm.lifetime.end.p0(i64 4, ptr %9) #11
  call void @llvm.lifetime.end.p0(i64 4, ptr %8) #11
  call void @llvm.lifetime.end.p0(i64 8, ptr %7) #11
  call void @llvm.lifetime.end.p0(i64 4, ptr %6) #11
  call void @llvm.lifetime.end.p0(i64 4, ptr %5) #11
  ret void
}