; Function Attrs: mustprogress uwtable
define void @_ZN6icu_7716RBBITableBuilder11removeStateESt4pairIiiE(ptr noundef nonnull readonly align 8 captures(none) dereferenceable(52) %0, i64 %1) local_unnamed_addr #0 align 2 {
  %.sroa.0.0.extract.trunc = trunc i64 %1 to i32
  %.sroa.2.0.extract.shift = lshr i64 %1, 32
  %.sroa.2.0.extract.trunc = trunc nuw i64 %.sroa.2.0.extract.shift to i32
  %3 = getelementptr inbounds nuw i8, ptr %0, i64 24
  %4 = load ptr, ptr %3, align 8, !tbaa !19
  %5 = tail call noundef ptr @_ZNK6icu_777UVector9elementAtEi(ptr noundef nonnull align 8 dereferenceable(40) %4, i32 noundef %.sroa.2.0.extract.trunc)
  %6 = load ptr, ptr %3, align 8, !tbaa !19
  tail call void @_ZN6icu_777UVector15removeElementAtEi(ptr noundef nonnull align 8 dereferenceable(40) %6, i32 noundef %.sroa.2.0.extract.trunc)
  %7 = icmp eq ptr %5, null
  br i1 %7, label %9, label %8

8:                                                ; preds = %2
  tail call void @_ZN6icu_7719RBBIStateDescriptorD1Ev(ptr noundef nonnull align 8 dereferenceable(48) %5) #13
  tail call void @_ZN6icu_777UMemorydlEPv(ptr noundef nonnull %5) #13
  br label %9

9:                                                ; preds = %8, %2
  %10 = load ptr, ptr %3, align 8, !tbaa !19
  %11 = getelementptr inbounds nuw i8, ptr %10, i64 8
  %12 = load i32, ptr %11, align 8, !tbaa !20
  %13 = load ptr, ptr %0, align 8, !tbaa !3
  %14 = getelementptr inbounds nuw i8, ptr %13, i64 160
  %15 = load ptr, ptr %14, align 8, !tbaa !33
  %16 = tail call noundef i32 @_ZNK6icu_7714RBBISetBuilder20getNumCharCategoriesEv(ptr noundef nonnull align 8 dereferenceable(53) %15)
  %17 = icmp sgt i32 %12, 0
  br i1 %17, label %.lr.ph29, label %._crit_edge30

.lr.ph29:                                         ; preds = %9
  %18 = icmp sgt i32 %16, 0
  br i1 %18, label %.lr.ph.us.preheader, label %.lr.ph29.split

.lr.ph.us.preheader:                              ; preds = %.lr.ph29
  %wide.trip.count = zext nneg i32 %16 to i64
  br label %.lr.ph.us

.lr.ph.us:                                        ; preds = %.lr.ph.us.preheader, %._crit_edge.us
  %.02227.us = phi i32 [ %38, %._crit_edge.us ], [ 0, %.lr.ph.us.preheader ]
  %19 = load ptr, ptr %3, align 8, !tbaa !19
  %20 = tail call noundef ptr @_ZNK6icu_777UVector9elementAtEi(ptr noundef nonnull align 8 dereferenceable(40) %19, i32 noundef %.02227.us)
  %21 = getelementptr inbounds nuw i8, ptr %20, i64 40
  br label %22

22:                                               ; preds = %.lr.ph.us, %_ZNK6icu_779UVector3210elementAtiEi.exit.us
  %indvars.iv = phi i64 [ 0, %.lr.ph.us ], [ %indvars.iv.next, %_ZNK6icu_779UVector3210elementAtiEi.exit.us ]
  %23 = load ptr, ptr %21, align 8, !tbaa !68
  %24 = getelementptr inbounds nuw i8, ptr %23, i64 8
  %25 = load i32, ptr %24, align 8
  %26 = sext i32 %25 to i64
  %27 = icmp slt i64 %indvars.iv, %26
  br i1 %27, label %28, label %_ZNK6icu_779UVector3210elementAtiEi.exit.us

28:                                               ; preds = %22
  %29 = getelementptr inbounds nuw i8, ptr %23, i64 24
  %30 = load ptr, ptr %29, align 8, !tbaa !74
  %31 = getelementptr inbounds nuw i32, ptr %30, i64 %indvars.iv
  %32 = load i32, ptr %31, align 4, !tbaa !77
  br label %_ZNK6icu_779UVector3210elementAtiEi.exit.us

_ZNK6icu_779UVector3210elementAtiEi.exit.us:      ; preds = %28, %22
  %33 = phi i32 [ %32, %28 ], [ 0, %22 ]
  %34 = icmp eq i32 %33, %.sroa.2.0.extract.trunc
  %35 = icmp sgt i32 %33, %.sroa.2.0.extract.trunc
  %36 = sext i1 %35 to i32
  %spec.select.us = add nsw i32 %33, %36
  %.0.us = select i1 %34, i32 %.sroa.0.0.extract.trunc, i32 %spec.select.us
  %37 = trunc nuw nsw i64 %indvars.iv to i32
  tail call void @_ZN6icu_779UVector3212setElementAtEii(ptr noundef nonnull align 8 dereferenceable(32) %23, i32 noundef %.0.us, i32 noundef %37)
  %indvars.iv.next = add nuw nsw i64 %indvars.iv, 1
  %exitcond33.not = icmp eq i64 %indvars.iv.next, %wide.trip.count
  br i1 %exitcond33.not, label %._crit_edge.us, label %22, !llvm.loop !122

._crit_edge.us:                                   ; preds = %_ZNK6icu_779UVector3210elementAtiEi.exit.us
  %38 = add nuw nsw i32 %.02227.us, 1
  %exitcond34.not = icmp eq i32 %38, %12
  br i1 %exitcond34.not, label %._crit_edge30, label %.lr.ph.us, !llvm.loop !123

._crit_edge30:                                    ; preds = %.lr.ph29.split, %._crit_edge.us, %9
  ret void

.lr.ph29.split:                                   ; preds = %.lr.ph29, %.lr.ph29.split
  %.02227 = phi i32 [ %41, %.lr.ph29.split ], [ 0, %.lr.ph29 ]
  %39 = load ptr, ptr %3, align 8, !tbaa !19
  %40 = tail call noundef ptr @_ZNK6icu_777UVector9elementAtEi(ptr noundef nonnull align 8 dereferenceable(40) %39, i32 noundef %.02227)
  %41 = add nuw nsw i32 %.02227, 1
  %exitcond.not = icmp eq i32 %41, %12
  br i1 %exitcond.not, label %._crit_edge30, label %.lr.ph29.split, !llvm.loop !123
}